target datalayout = "e-m:e-p270:32:32-p271:32:32-p272:64:64-i64:64-i128:128-f80:128-n8:16:32:64-S128"
target triple = "x86_64-unknown-linux-gnu"

%"class.llvh::StringRef" = type { ptr, i64 }
%"struct.llvh::FileCheckRequest" = type <{ %"class.std::vector", i8, [7 x i8], %"class.std::vector", %"class.std::vector", i8, i8, i8, i8, i8, i8, [2 x i8] }>
%"class.std::vector" = type { %"struct.std::_Vector_base" }
%"struct.std::_Vector_base" = type { %"struct.std::_Vector_base<std::__cxx11::basic_string<char>, std::allocator<std::__cxx11::basic_string<char>>>::_Vector_impl" }
%"struct.std::_Vector_base<std::__cxx11::basic_string<char>, std::allocator<std::__cxx11::basic_string<char>>>::_Vector_impl" = type { %"struct.std::_Vector_base<std::__cxx11::basic_string<char>, std::allocator<std::__cxx11::basic_string<char>>>::_Vector_impl_data" }
%"struct.std::_Vector_base<std::__cxx11::basic_string<char>, std::allocator<std::__cxx11::basic_string<char>>>::_Vector_impl_data" = type { ptr, ptr, ptr }
%"class.llvh::SmallVectorBase" = type { ptr, i32, i32 }
%"class.llvh::FileCheck" = type { %"struct.llvh::FileCheckRequest" }
%"class.llvh::MemoryBuffer" = type { ptr, ptr, ptr }

; Function Attrs: mustprogress nounwind uwtable
define linkonce_odr hidden noundef ptr @_ZNK4llvh25SmallVectorTemplateCommonIcvE10getFirstElEv(ptr noundef nonnull align 8 dereferenceable(16) %this) #0 comdat align 2 {
entry:
  %this.addr = alloca ptr, align 8
  store ptr %this, ptr %this.addr, align 8
  %this1 = load ptr, ptr %this.addr, align 8
  %add.ptr = getelementptr inbounds i8, ptr %this1, i64 16
  ret ptr %add.ptr
}

; Function Attrs: mustprogress nounwind uwtable
define linkonce_odr hidden void @_ZN4llvh25SmallVectorTemplateCommonIcvE8grow_podEmm(ptr noundef nonnull align 8 dereferenceable(16) %this, i64 noundef %MinCapacity, i64 noundef %TSize) #0 comdat align 2 {
entry:
  %this.addr = alloca ptr, align 8
  %MinCapacity.addr = alloca i64, align 8
  %TSize.addr = alloca i64, align 8
  store ptr %this, ptr %this.addr, align 8
  store i64 %MinCapacity, ptr %MinCapacity.addr, align 8
  store i64 %TSize, ptr %TSize.addr, align 8
  %this1 = load ptr, ptr %this.addr, align 8
  %call = call noundef ptr @_ZNK4llvh25SmallVectorTemplateCommonIcvE10getFirstElEv(ptr noundef nonnull align 8 dereferenceable(16) %this1)
  %0 = load i64, ptr %MinCapacity.addr, align 8
  %1 = load i64, ptr %TSize.addr, align 8
  call void @_ZN4llvh15SmallVectorBase8grow_podEPvmm(ptr noundef nonnull align 8 dereferenceable(16) %this1, ptr noundef %call, i64 noundef %0, i64 noundef %1)
  ret void
}

; Function Attrs: mustprogress nounwind uwtable
define linkonce_odr hidden void @_ZN4llvh15SmallVectorBase8set_sizeEm(ptr noundef nonnull align 8 dereferenceable(16) %this, i64 noundef %Size) #0 comdat align 2 {
entry:
  %this.addr = alloca ptr, align 8
  %Size.addr = alloca i64, align 8
  store ptr %this, ptr %this.addr, align 8
  store i64 %Size, ptr %Size.addr, align 8
  %this1 = load ptr, ptr %this.addr, align 8
  %0 = load i64, ptr %Size.addr, align 8
  %conv = trunc i64 %0 to i32
  %Size2 = getelementptr inbounds %"class.llvh::SmallVectorBase", ptr %this1, i32 0, i32 1
  store i32 %conv, ptr %Size2, align 8
  ret void
}

; Function Attrs: mustprogress nounwind uwtable
define linkonce_odr hidden void @_ZN4llvh23SmallVectorTemplateBaseIcLb1EE4growEm(ptr noundef nonnull align 8 dereferenceable(16) %this, i64 noundef %MinSize) #0 comdat align 2 {
entry:
  %this.addr = alloca ptr, align 8
  %MinSize.addr = alloca i64, align 8
  store ptr %this, ptr %this.addr, align 8
  store i64 %MinSize, ptr %MinSize.addr, align 8
  %this1 = load ptr, ptr %this.addr, align 8
  %0 = load i64, ptr %MinSize.addr, align 8
  call void @_ZN4llvh25SmallVectorTemplateCommonIcvE8grow_podEmm(ptr noundef nonnull align 8 dereferenceable(16) %this1, i64 noundef %0, i64 noundef 1)
  ret void
}

; Function Attrs: mustprogress nounwind uwtable
define linkonce_odr hidden noundef i64 @_ZNK4llvh15SmallVectorBase8capacityEv(ptr noundef nonnull align 8 dereferenceable(16) %this) #0 comdat align 2 {
entry:
  %this.addr = alloca ptr, align 8
  store ptr %this, ptr %this.addr, align 8
  %this1 = load ptr, ptr %this.addr, align 8
  %Capacity = getelementptr inbounds %"class.llvh::SmallVectorBase", ptr %this1, i32 0, i32 2
  %0 = load i32, ptr %Capacity, align 4
  %conv = zext i32 %0 to i64
  ret i64 %conv
}

; Function Attrs: mustprogress nounwind uwtable
define linkonce_odr hidden noundef i64 @_ZNK4llvh15SmallVectorBase4sizeEv(ptr noundef nonnull align 8 dereferenceable(16) %this) #0 comdat align 2 {
entry:
  %this.addr = alloca ptr, align 8
  store ptr %this, ptr %this.addr, align 8
  %this1 = load ptr, ptr %this.addr, align 8
  %Size = getelementptr inbounds %"class.llvh::SmallVectorBase", ptr %this1, i32 0, i32 1
  %0 = load i32, ptr %Size, align 8
  %conv = zext i32 %0 to i64
  ret i64 %conv
}

; Function Attrs: mustprogress nounwind uwtable
define linkonce_odr hidden noundef ptr @_ZN4llvh25SmallVectorTemplateCommonIcvE4dataEv(ptr noundef nonnull align 8 dereferenceable(16) %this) #0 comdat align 2 {
entry:
  %this.addr.i = alloca ptr, align 8
  %this.addr = alloca ptr, align 8
  store ptr %this, ptr %this.addr, align 8
  %this1 = load ptr, ptr %this.addr, align 8
  store ptr %this1, ptr %this.addr.i, align 8
  %this1.i = load ptr, ptr %this.addr.i, align 8
  %0 = load ptr, ptr %this1.i, align 8
  ret ptr %0
}

; Function Attrs: mustprogress nounwind uwtable
define linkonce_odr hidden void @_ZN4llvh23SmallVectorTemplateBaseIcLb1EE9push_backERKc(ptr noundef nonnull align 8 dereferenceable(16) %this, ptr noundef nonnull align 1 dereferenceable(1) %Elt) #0 comdat align 2 {
entry:
  %this.addr.i.i = alloca ptr, align 8
  %this.addr.i = alloca ptr, align 8
  %this.addr = alloca ptr, align 8
  %Elt.addr = alloca ptr, align 8
  store ptr %this, ptr %this.addr, align 8
  store ptr %Elt, ptr %Elt.addr, align 8
  %this1 = load ptr, ptr %this.addr, align 8
  %call = call noundef i64 @_ZNK4llvh15SmallVectorBase4sizeEv(ptr noundef nonnull align 8 dereferenceable(16) %this1)
  %call2 = call noundef i64 @_ZNK4llvh15SmallVectorBase8capacityEv(ptr noundef nonnull align 8 dereferenceable(16) %this1)
  %cmp = icmp uge i64 %call, %call2
  br i1 %cmp, label %if.then, label %if.end

if.then:                                          ; preds = %entry
  call void @_ZN4llvh23SmallVectorTemplateBaseIcLb1EE4growEm(ptr noundef nonnull align 8 dereferenceable(16) %this1, i64 noundef 0)
  br label %if.end

if.end:                                           ; preds = %if.then, %entry
  store ptr %this1, ptr %this.addr.i, align 8
  %this1.i = load ptr, ptr %this.addr.i, align 8
  store ptr %this1.i, ptr %this.addr.i.i, align 8
  %this1.i.i = load ptr, ptr %this.addr.i.i, align 8
  %0 = load ptr, ptr %this1.i.i, align 8
  %call2.i = call noundef i64 @_ZNK4llvh15SmallVectorBase4sizeEv(ptr noundef nonnull align 8 dereferenceable(16) %this1.i)
  %add.ptr.i = getelementptr inbounds i8, ptr %0, i64 %call2.i
  %1 = load ptr, ptr %Elt.addr, align 8
  call void @llvm.memcpy.p0.p0.i64(ptr align 1 %add.ptr.i, ptr align 1 %1, i64 1, i1 false)
  %call4 = call noundef i64 @_ZNK4llvh15SmallVectorBase4sizeEv(ptr noundef nonnull align 8 dereferenceable(16) %this1)
  %add = add i64 %call4, 1
  call void @_ZN4llvh15SmallVectorBase8set_sizeEm(ptr noundef nonnull align 8 dereferenceable(16) %this1, i64 noundef %add)
  ret void
}

; Function Attrs: mustprogress nounwind uwtable
define linkonce_odr hidden noundef ptr @_ZNK4llvh12MemoryBuffer12getBufferEndEv(ptr noundef nonnull align 8 dereferenceable(24) %this) #0 comdat align 2 {
entry:
  %this.addr = alloca ptr, align 8
  store ptr %this, ptr %this.addr, align 8
  %this1 = load ptr, ptr %this.addr, align 8
  %BufferEnd = getelementptr inbounds %"class.llvh::MemoryBuffer", ptr %this1, i32 0, i32 2
  %0 = load ptr, ptr %BufferEnd, align 8
  ret ptr %0
}

; Function Attrs: mustprogress nounwind uwtable
define linkonce_odr hidden noundef ptr @_ZNK4llvh12MemoryBuffer14getBufferStartEv(ptr noundef nonnull align 8 dereferenceable(24) %this) #0 comdat align 2 {
entry:
  %this.addr = alloca ptr, align 8
  store ptr %this, ptr %this.addr, align 8
  %this1 = load ptr, ptr %this.addr, align 8
  %BufferStart = getelementptr inbounds %"class.llvh::MemoryBuffer", ptr %this1, i32 0, i32 1
  %0 = load ptr, ptr %BufferStart, align 8
  ret ptr %0
}

; Function Attrs: mustprogress nounwind uwtable
define linkonce_odr hidden void @_ZN4llvh15SmallVectorImplIcE7reserveEm(ptr noundef nonnull align 8 dereferenceable(16) %this, i64 noundef %N) #0 comdat align 2 {
entry:
  %this.addr = alloca ptr, align 8
  %N.addr = alloca i64, align 8
  store ptr %this, ptr %this.addr, align 8
  store i64 %N, ptr %N.addr, align 8
  %this1 = load ptr, ptr %this.addr, align 8
  %call = call noundef i64 @_ZNK4llvh15SmallVectorBase8capacityEv(ptr noundef nonnull align 8 dereferenceable(16) %this1)
  %0 = load i64, ptr %N.addr, align 8
  %cmp = icmp ult i64 %call, %0
  br i1 %cmp, label %if.then, label %if.end

if.then:                                          ; preds = %entry
  %1 = load i64, ptr %N.addr, align 8
  call void @_ZN4llvh23SmallVectorTemplateBaseIcLb1EE4growEm(ptr noundef nonnull align 8 dereferenceable(16) %this1, i64 noundef %1)
  br label %if.end

if.end:                                           ; preds = %if.then, %entry
  ret void
}

; Function Attrs: mustprogress nounwind uwtable
define linkonce_odr hidden noundef i64 @_ZNK4llvh12MemoryBuffer13getBufferSizeEv(ptr noundef nonnull align 8 dereferenceable(24) %this) #0 comdat align 2 {
entry:
  %this.addr = alloca ptr, align 8
  store ptr %this, ptr %this.addr, align 8
  %this1 = load ptr, ptr %this.addr, align 8
  %BufferEnd = getelementptr inbounds %"class.llvh::MemoryBuffer", ptr %this1, i32 0, i32 2
  %0 = load ptr, ptr %BufferEnd, align 8
  %BufferStart = getelementptr inbounds %"class.llvh::MemoryBuffer", ptr %this1, i32 0, i32 1
  %1 = load ptr, ptr %BufferStart, align 8
  %sub.ptr.lhs.cast = ptrtoint ptr %0 to i64
  %sub.ptr.rhs.cast = ptrtoint ptr %1 to i64
  %sub.ptr.sub = sub i64 %sub.ptr.lhs.cast, %sub.ptr.rhs.cast
  ret i64 %sub.ptr.sub
}

; Function Attrs: mustprogress nounwind uwtable
define hidden { ptr, i64 } @_ZN4llvh9FileCheck16CanonicalizeFileERNS_12MemoryBufferERNS_15SmallVectorImplIcEE(ptr noundef nonnull align 8 dereferenceable(88) %this, ptr noundef nonnull align 8 dereferenceable(24) %MB, ptr noundef nonnull align 8 dereferenceable(16) %OutputBuffer) #0 align 2 {
entry:
  %this.addr.i = alloca ptr, align 8
  %data.addr.i = alloca ptr, align 8
  %length.addr.i = alloca i64, align 8
  %retval = alloca %"class.llvh::StringRef", align 8
  %this.addr = alloca ptr, align 8
  %MB.addr = alloca ptr, align 8
  %OutputBuffer.addr = alloca ptr, align 8
  %Ptr = alloca ptr, align 8
  %End = alloca ptr, align 8
  %ref.tmp = alloca i8, align 1
  %ref.tmp26 = alloca i8, align 1
  store ptr %this, ptr %this.addr, align 8
  store ptr %MB, ptr %MB.addr, align 8
  store ptr %OutputBuffer, ptr %OutputBuffer.addr, align 8
  %this1 = load ptr, ptr %this.addr, align 8
  %0 = load ptr, ptr %OutputBuffer.addr, align 8
  %1 = load ptr, ptr %MB.addr, align 8
  %call = call noundef i64 @_ZNK4llvh12MemoryBuffer13getBufferSizeEv(ptr noundef nonnull align 8 dereferenceable(24) %1)
  call void @_ZN4llvh15SmallVectorImplIcE7reserveEm(ptr noundef nonnull align 8 dereferenceable(16) %0, i64 noundef %call)
  %2 = load ptr, ptr %MB.addr, align 8
  %call2 = call noundef ptr @_ZNK4llvh12MemoryBuffer14getBufferStartEv(ptr noundef nonnull align 8 dereferenceable(24) %2)
  store ptr %call2, ptr %Ptr, align 8
  %3 = load ptr, ptr %MB.addr, align 8
  %call3 = call noundef ptr @_ZNK4llvh12MemoryBuffer12getBufferEndEv(ptr noundef nonnull align 8 dereferenceable(24) %3)
  store ptr %call3, ptr %End, align 8
  br label %for.cond

for.cond:                                         ; preds = %for.inc, %entry
  %4 = load ptr, ptr %Ptr, align 8
  %5 = load ptr, ptr %End, align 8
  %cmp = icmp ne ptr %4, %5
  br i1 %cmp, label %for.body, label %for.end

for.body:                                         ; preds = %for.cond
  %6 = load ptr, ptr %Ptr, align 8
  %7 = load ptr, ptr %End, align 8
  %add.ptr = getelementptr inbounds i8, ptr %7, i64 -2
  %cmp4 = icmp ule ptr %6, %add.ptr
  br i1 %cmp4, label %land.lhs.true, label %if.end

land.lhs.true:                                    ; preds = %for.body
  %8 = load ptr, ptr %Ptr, align 8
  %arrayidx = getelementptr inbounds i8, ptr %8, i64 0
  %9 = load i8, ptr %arrayidx, align 1
  %conv = sext i8 %9 to i32
  %cmp5 = icmp eq i32 %conv, 13
  br i1 %cmp5, label %land.lhs.true6, label %if.end

land.lhs.true6:                                   ; preds = %land.lhs.true
  %10 = load ptr, ptr %Ptr, align 8
  %arrayidx7 = getelementptr inbounds i8, ptr %10, i64 1
  %11 = load i8, ptr %arrayidx7, align 1
  %conv8 = sext i8 %11 to i32
  %cmp9 = icmp eq i32 %conv8, 10
  br i1 %cmp9, label %if.then, label %if.end

if.then:                                          ; preds = %land.lhs.true6
  br label %for.inc

if.end:                                           ; preds = %land.lhs.true6, %land.lhs.true, %for.body
  %Req = getelementptr inbounds %"class.llvh::FileCheck", ptr %this1, i32 0, i32 0
  %NoCanonicalizeWhiteSpace = getelementptr inbounds %"struct.llvh::FileCheckRequest", ptr %Req, i32 0, i32 1
  %12 = load i8, ptr %NoCanonicalizeWhiteSpace, align 8
  %tobool = trunc i8 %12 to i1
  br i1 %tobool, label %if.then15, label %lor.lhs.false

lor.lhs.false:                                    ; preds = %if.end
  %13 = load ptr, ptr %Ptr, align 8
  %14 = load i8, ptr %13, align 1
  %conv10 = sext i8 %14 to i32
  %cmp11 = icmp ne i32 %conv10, 32
  br i1 %cmp11, label %land.lhs.true12, label %if.end16

land.lhs.true12:                                  ; preds = %lor.lhs.false
  %15 = load ptr, ptr %Ptr, align 8
  %16 = load i8, ptr %15, align 1
  %conv13 = sext i8 %16 to i32
  %cmp14 = icmp ne i32 %conv13, 9
  br i1 %cmp14, label %if.then15, label %if.end16

if.then15:                                        ; preds = %land.lhs.true12, %if.end
  %17 = load ptr, ptr %OutputBuffer.addr, align 8
  %18 = load ptr, ptr %Ptr, align 8
  call void @_ZN4llvh23SmallVectorTemplateBaseIcLb1EE9push_backERKc(ptr noundef nonnull align 8 dereferenceable(16) %17, ptr noundef nonnull align 1 dereferenceable(1) %18)
  br label %for.inc

if.end16:                                         ; preds = %land.lhs.true12, %lor.lhs.false
  %19 = load ptr, ptr %OutputBuffer.addr, align 8
  store i8 32, ptr %ref.tmp, align 1
  call void @_ZN4llvh23SmallVectorTemplateBaseIcLb1EE9push_backERKc(ptr noundef nonnull align 8 dereferenceable(16) %19, ptr noundef nonnull align 1 dereferenceable(1) %ref.tmp)
  br label %while.cond

while.cond:                                       ; preds = %while.body, %if.end16
  %20 = load ptr, ptr %Ptr, align 8
  %add.ptr17 = getelementptr inbounds i8, ptr %20, i64 1
  %21 = load ptr, ptr %End, align 8
  %cmp18 = icmp ne ptr %add.ptr17, %21
  br i1 %cmp18, label %land.rhs, label %land.end

land.rhs:                                         ; preds = %while.cond
  %22 = load ptr, ptr %Ptr, align 8
  %arrayidx19 = getelementptr inbounds i8, ptr %22, i64 1
  %23 = load i8, ptr %arrayidx19, align 1
  %conv20 = sext i8 %23 to i32
  %cmp21 = icmp eq i32 %conv20, 32
  br i1 %cmp21, label %lor.end, label %lor.rhs

lor.rhs:                                          ; preds = %land.rhs
  %24 = load ptr, ptr %Ptr, align 8
  %arrayidx22 = getelementptr inbounds i8, ptr %24, i64 1
  %25 = load i8, ptr %arrayidx22, align 1
  %conv23 = sext i8 %25 to i32
  %cmp24 = icmp eq i32 %conv23, 9
  br label %lor.end

lor.end:                                          ; preds = %lor.rhs, %land.rhs
  %26 = phi i1 [ true, %land.rhs ], [ %cmp24, %lor.rhs ]
  br label %land.end

land.end:                                         ; preds = %lor.end, %while.cond
  %27 = phi i1 [ false, %while.cond ], [ %26, %lor.end ]
  br i1 %27, label %while.body, label %while.end

while.body:                                       ; preds = %land.end
  %28 = load ptr, ptr %Ptr, align 8
  %incdec.ptr = getelementptr inbounds i8, ptr %28, i32 1
  store ptr %incdec.ptr, ptr %Ptr, align 8
  br label %while.cond, !llvm.loop !10

while.end:                                        ; preds = %land.end
  br label %for.inc

for.inc:                                          ; preds = %while.end, %if.then15, %if.then
  %29 = load ptr, ptr %Ptr, align 8
  %incdec.ptr25 = getelementptr inbounds i8, ptr %29, i32 1
  store ptr %incdec.ptr25, ptr %Ptr, align 8
  br label %for.cond, !llvm.loop !11

for.end:                                          ; preds = %for.cond
  %30 = load ptr, ptr %OutputBuffer.addr, align 8
  store i8 0, ptr %ref.tmp26, align 1
  call void @_ZN4llvh23SmallVectorTemplateBaseIcLb1EE9push_backERKc(ptr noundef nonnull align 8 dereferenceable(16) %30, ptr noundef nonnull align 1 dereferenceable(1) %ref.tmp26)
  %31 = load ptr, ptr %OutputBuffer.addr, align 8
  %call27 = call noundef ptr @_ZN4llvh25SmallVectorTemplateCommonIcvE4dataEv(ptr noundef nonnull align 8 dereferenceable(16) %31)
  %32 = load ptr, ptr %OutputBuffer.addr, align 8
  %call28 = call noundef i64 @_ZNK4llvh15SmallVectorBase4sizeEv(ptr noundef nonnull align 8 dereferenceable(16) %32)
  %sub = sub i64 %call28, 1
  store ptr %retval, ptr %this.addr.i, align 8
  store ptr %call27, ptr %data.addr.i, align 8
  store i64 %sub, ptr %length.addr.i, align 8
  %this1.i = load ptr, ptr %this.addr.i, align 8
  %33 = load ptr, ptr %data.addr.i, align 8
  store ptr %33, ptr %this1.i, align 8
  %Length.i = getelementptr inbounds %"class.llvh::StringRef", ptr %this1.i, i32 0, i32 1
  %34 = load i64, ptr %length.addr.i, align 8
  store i64 %34, ptr %Length.i, align 8
  %35 = load { ptr, i64 }, ptr %retval, align 8
  ret { ptr, i64 } %35
}