; Function Attrs: mustprogress nounwind uwtable
define hidden { ptr, i64 } @_ZN4llvh9FileCheck16CanonicalizeFileERNS_12MemoryBufferERNS_15SmallVectorImplIcEE(ptr nocapture noundef nonnull readonly align 8 dereferenceable(88) %this, ptr nocapture noundef nonnull readonly align 8 dereferenceable(24) %MB, ptr noundef nonnull align 8 dereferenceable(16) %OutputBuffer) local_unnamed_addr #0 align 2 {
entry:
  %BufferEnd.i = getelementptr inbounds i8, ptr %MB, i64 16
  %0 = load ptr, ptr %BufferEnd.i, align 8
  %BufferStart.i = getelementptr inbounds i8, ptr %MB, i64 8
  %1 = load ptr, ptr %BufferStart.i, align 8
  %sub.ptr.lhs.cast.i = ptrtoint ptr %0 to i64
  %sub.ptr.rhs.cast.i = ptrtoint ptr %1 to i64
  %sub.ptr.sub.i = sub i64 %sub.ptr.lhs.cast.i, %sub.ptr.rhs.cast.i
  %Capacity.i.i = getelementptr inbounds i8, ptr %OutputBuffer, i64 12
  %2 = load i32, ptr %Capacity.i.i, align 4
  %conv.i.i = zext i32 %2 to i64
  %cmp.i = icmp ugt i64 %sub.ptr.sub.i, %conv.i.i
  br i1 %cmp.i, label %if.then.i, label %_ZN4llvh15SmallVectorImplIcE7reserveEm.exit

if.then.i:                                        ; preds = %entry
  %add.ptr.i.i.i.i = getelementptr inbounds i8, ptr %OutputBuffer, i64 16
  tail call void @_ZN4llvh15SmallVectorBase8grow_podEPvmm(ptr noundef nonnull align 8 dereferenceable(16) %OutputBuffer, ptr noundef nonnull %add.ptr.i.i.i.i, i64 noundef %sub.ptr.sub.i, i64 noundef 1) #18
  %.pre = load ptr, ptr %BufferStart.i, align 8
  %.pre53 = load ptr, ptr %BufferEnd.i, align 8
  br label %_ZN4llvh15SmallVectorImplIcE7reserveEm.exit

_ZN4llvh15SmallVectorImplIcE7reserveEm.exit:      ; preds = %entry, %if.then.i
  %3 = phi ptr [ %0, %entry ], [ %.pre53, %if.then.i ]
  %4 = phi ptr [ %1, %entry ], [ %.pre, %if.then.i ]
  %cmp.not51 = icmp eq ptr %4, %3
  br i1 %cmp.not51, label %for.end, label %for.body.lr.ph

for.body.lr.ph:                                   ; preds = %_ZN4llvh15SmallVectorImplIcE7reserveEm.exit
  %add.ptr = getelementptr inbounds i8, ptr %3, i64 -2
  %NoCanonicalizeWhiteSpace = getelementptr inbounds i8, ptr %this, i64 24
  %Size.i.i26 = getelementptr inbounds i8, ptr %OutputBuffer, i64 8
  %add.ptr.i.i.i.i30 = getelementptr inbounds i8, ptr %OutputBuffer, i64 16
  br label %for.body

for.body:                                         ; preds = %for.body.lr.ph, %for.inc
  %Ptr.052 = phi ptr [ %4, %for.body.lr.ph ], [ %incdec.ptr25, %for.inc ]
  %cmp4.not = icmp ugt ptr %Ptr.052, %add.ptr
  br i1 %cmp4.not, label %if.end, label %land.lhs.true

land.lhs.true:                                    ; preds = %for.body
  %5 = load i8, ptr %Ptr.052, align 1
  %cmp5 = icmp eq i8 %5, 13
  br i1 %cmp5, label %land.lhs.true6, label %if.end

land.lhs.true6:                                   ; preds = %land.lhs.true
  %arrayidx7 = getelementptr inbounds i8, ptr %Ptr.052, i64 1
  %6 = load i8, ptr %arrayidx7, align 1
  %cmp9 = icmp eq i8 %6, 10
  br i1 %cmp9, label %for.inc, label %if.end

if.end:                                           ; preds = %land.lhs.true6, %land.lhs.true, %for.body
  %7 = load i8, ptr %NoCanonicalizeWhiteSpace, align 8
  %8 = and i8 %7, 1
  %tobool.not = icmp eq i8 %8, 0
  br i1 %tobool.not, label %lor.lhs.false, label %if.then15

lor.lhs.false:                                    ; preds = %if.end
  %9 = load i8, ptr %Ptr.052, align 1
  switch i8 %9, label %if.then15 [
    i8 32, label %if.end16
    i8 9, label %if.end16
  ]

if.then15:                                        ; preds = %lor.lhs.false, %if.end
  %10 = load i32, ptr %Size.i.i26, align 8
  %11 = load i32, ptr %Capacity.i.i, align 4
  %cmp.not.i = icmp ult i32 %10, %11
  br i1 %cmp.not.i, label %_ZN4llvh23SmallVectorTemplateBaseIcLb1EE9push_backERKc.exit, label %if.then.i24

if.then.i24:                                      ; preds = %if.then15
  tail call void @_ZN4llvh15SmallVectorBase8grow_podEPvmm(ptr noundef nonnull align 8 dereferenceable(16) %OutputBuffer, ptr noundef nonnull %add.ptr.i.i.i.i30, i64 noundef 0, i64 noundef 1) #18
  %.pre.i = load i32, ptr %Size.i.i26, align 8
  br label %_ZN4llvh23SmallVectorTemplateBaseIcLb1EE9push_backERKc.exit

_ZN4llvh23SmallVectorTemplateBaseIcLb1EE9push_backERKc.exit: ; preds = %if.then15, %if.then.i24
  %12 = phi i32 [ %.pre.i, %if.then.i24 ], [ %10, %if.then15 ]
  %13 = load ptr, ptr %OutputBuffer, align 8
  %conv.i3.i = zext i32 %12 to i64
  %add.ptr.i.i = getelementptr inbounds i8, ptr %13, i64 %conv.i3.i
  %14 = load i8, ptr %Ptr.052, align 1
  store i8 %14, ptr %add.ptr.i.i, align 1
  %15 = load i32, ptr %Size.i.i26, align 8
  %add.i = add i32 %15, 1
  store i32 %add.i, ptr %Size.i.i26, align 8
  br label %for.inc

if.end16:                                         ; preds = %lor.lhs.false, %lor.lhs.false
  %16 = load i32, ptr %Size.i.i26, align 8
  %17 = load i32, ptr %Capacity.i.i, align 4
  %cmp.not.i28 = icmp ult i32 %16, %17
  br i1 %cmp.not.i28, label %_ZN4llvh23SmallVectorTemplateBaseIcLb1EE9push_backERKc.exit35, label %if.then.i29

if.then.i29:                                      ; preds = %if.end16
  tail call void @_ZN4llvh15SmallVectorBase8grow_podEPvmm(ptr noundef nonnull align 8 dereferenceable(16) %OutputBuffer, ptr noundef nonnull %add.ptr.i.i.i.i30, i64 noundef 0, i64 noundef 1) #18
  %.pre.i31 = load i32, ptr %Size.i.i26, align 8
  br label %_ZN4llvh23SmallVectorTemplateBaseIcLb1EE9push_backERKc.exit35

_ZN4llvh23SmallVectorTemplateBaseIcLb1EE9push_backERKc.exit35: ; preds = %if.end16, %if.then.i29
  %18 = phi i32 [ %.pre.i31, %if.then.i29 ], [ %16, %if.end16 ]
  %19 = load ptr, ptr %OutputBuffer, align 8
  %conv.i3.i32 = zext i32 %18 to i64
  %add.ptr.i.i33 = getelementptr inbounds i8, ptr %19, i64 %conv.i3.i32
  store i8 32, ptr %add.ptr.i.i33, align 1
  %20 = load i32, ptr %Size.i.i26, align 8
  %add.i34 = add i32 %20, 1
  store i32 %add.i34, ptr %Size.i.i26, align 8
  %add.ptr1746 = getelementptr inbounds i8, ptr %Ptr.052, i64 1
  %cmp18.not47 = icmp eq ptr %add.ptr1746, %3
  br i1 %cmp18.not47, label %for.inc, label %land.rhs

land.rhs:                                         ; preds = %_ZN4llvh23SmallVectorTemplateBaseIcLb1EE9push_backERKc.exit35, %while.body
  %add.ptr1749 = phi ptr [ %add.ptr17, %while.body ], [ %add.ptr1746, %_ZN4llvh23SmallVectorTemplateBaseIcLb1EE9push_backERKc.exit35 ]
  %Ptr.148 = phi ptr [ %add.ptr1749, %while.body ], [ %Ptr.052, %_ZN4llvh23SmallVectorTemplateBaseIcLb1EE9push_backERKc.exit35 ]
  %21 = load i8, ptr %add.ptr1749, align 1
  switch i8 %21, label %for.inc [
    i8 32, label %while.body
    i8 9, label %while.body
  ]

while.body:                                       ; preds = %land.rhs, %land.rhs
  %add.ptr17 = getelementptr inbounds i8, ptr %add.ptr1749, i64 1
  %cmp18.not = icmp eq ptr %add.ptr17, %3
  br i1 %cmp18.not, label %for.inc, label %land.rhs, !llvm.loop !60

for.inc:                                          ; preds = %while.body, %land.rhs, %_ZN4llvh23SmallVectorTemplateBaseIcLb1EE9push_backERKc.exit35, %land.lhs.true6, %_ZN4llvh23SmallVectorTemplateBaseIcLb1EE9push_backERKc.exit
  %Ptr.2 = phi ptr [ %Ptr.052, %land.lhs.true6 ], [ %Ptr.052, %_ZN4llvh23SmallVectorTemplateBaseIcLb1EE9push_backERKc.exit ], [ %Ptr.052, %_ZN4llvh23SmallVectorTemplateBaseIcLb1EE9push_backERKc.exit35 ], [ %add.ptr1749, %while.body ], [ %Ptr.148, %land.rhs ]
  %incdec.ptr25 = getelementptr inbounds i8, ptr %Ptr.2, i64 1
  %cmp.not = icmp eq ptr %incdec.ptr25, %3
  br i1 %cmp.not, label %for.end, label %for.body, !llvm.loop !61

for.end:                                          ; preds = %for.inc, %_ZN4llvh15SmallVectorImplIcE7reserveEm.exit
  %Size.i.i36 = getelementptr inbounds i8, ptr %OutputBuffer, i64 8
  %22 = load i32, ptr %Size.i.i36, align 8
  %23 = load i32, ptr %Capacity.i.i, align 4
  %cmp.not.i38 = icmp ult i32 %22, %23
  br i1 %cmp.not.i38, label %_ZN4llvh23SmallVectorTemplateBaseIcLb1EE9push_backERKc.exit45, label %if.then.i39

if.then.i39:                                      ; preds = %for.end
  %add.ptr.i.i.i.i40 = getelementptr inbounds i8, ptr %OutputBuffer, i64 16
  tail call void @_ZN4llvh15SmallVectorBase8grow_podEPvmm(ptr noundef nonnull align 8 dereferenceable(16) %OutputBuffer, ptr noundef nonnull %add.ptr.i.i.i.i40, i64 noundef 0, i64 noundef 1) #18
  %.pre.i41 = load i32, ptr %Size.i.i36, align 8
  br label %_ZN4llvh23SmallVectorTemplateBaseIcLb1EE9push_backERKc.exit45

_ZN4llvh23SmallVectorTemplateBaseIcLb1EE9push_backERKc.exit45: ; preds = %for.end, %if.then.i39
  %24 = phi i32 [ %.pre.i41, %if.then.i39 ], [ %22, %for.end ]
  %25 = load ptr, ptr %OutputBuffer, align 8
  %conv.i3.i42 = zext i32 %24 to i64
  %add.ptr.i.i43 = getelementptr inbounds i8, ptr %25, i64 %conv.i3.i42
  store i8 0, ptr %add.ptr.i.i43, align 1
  %26 = load i32, ptr %Size.i.i36, align 8
  %add.i44 = add i32 %26, 1
  store i32 %add.i44, ptr %Size.i.i36, align 8
  %27 = load ptr, ptr %OutputBuffer, align 8
  %conv.i = zext i32 %add.i44 to i64
  %sub = add nsw i64 %conv.i, -1
  %.fca.0.insert = insertvalue { ptr, i64 } poison, ptr %27, 0
  %.fca.1.insert = insertvalue { ptr, i64 } %.fca.0.insert, i64 %sub, 1
  ret { ptr, i64 } %.fca.1.insert
}